; Function Attrs: nounwind sspstrong uwtable
define internal i64 @argf_set_pos(i64 noundef %0, i64 noundef %1) #0 {
  %3 = alloca i64, align 8
  store i64 %1, ptr %3, align 8, !tbaa !23
  %4 = tail call fastcc i32 @argf_next_argv(i64 noundef %0)
  %.not = icmp eq i32 %4, 0
  br i1 %.not, label %5, label %7

5:                                                ; preds = %2
  %6 = load i64, ptr @rb_eArgError, align 8, !tbaa !23
  tail call void (i64, ptr, ...) @rb_raise(i64 noundef %6, ptr noundef nonnull @.str.325) #30
  unreachable

7:                                                ; preds = %2
  %8 = inttoptr i64 %0 to ptr
  %9 = getelementptr inbounds nuw i8, ptr %8, i64 32
  %10 = load ptr, ptr %9, align 8, !tbaa !59
  %11 = getelementptr inbounds nuw i8, ptr %10, i64 8
  %12 = load i64, ptr %11, align 8, !tbaa !61
  %13 = load i64, ptr @rb_stdin, align 8, !tbaa !23
  %14 = icmp eq i64 %12, %13
  br i1 %14, label %15, label %29

15:                                               ; preds = %7
  %16 = icmp eq i64 %12, 0
  %17 = and i64 %12, 7
  %18 = icmp ne i64 %17, 0
  %19 = or i1 %16, %18
  br i1 %19, label %rbimpl_RB_TYPE_P_fastpath.exit.thread, label %rbimpl_RB_TYPE_P_fastpath.exit

rbimpl_RB_TYPE_P_fastpath.exit:                   ; preds = %15
  %20 = inttoptr i64 %12 to ptr
  %21 = load i64, ptr %20, align 8, !tbaa !25
  %22 = and i64 %21, 31
  %23 = icmp eq i64 %22, 11
  br i1 %23, label %29, label %rbimpl_RB_TYPE_P_fastpath.exit.thread

rbimpl_RB_TYPE_P_fastpath.exit.thread:            ; preds = %15, %rbimpl_RB_TYPE_P_fastpath.exit
  %24 = tail call i64 @rb_frame_this_func() #28
  %25 = tail call i32 @rb_keyword_given_p() #28
  %26 = icmp ne i32 %25, 0
  %27 = zext i1 %26 to i32
  %28 = call i64 @rb_funcallv_public_kw(i64 noundef %12, i64 noundef %24, i32 noundef 1, ptr noundef nonnull %3, i32 noundef %27) #28
  br label %31

29:                                               ; preds = %7, %rbimpl_RB_TYPE_P_fastpath.exit
  %30 = tail call i64 @rb_io_set_pos(i64 noundef %12, i64 noundef %1)
  br label %31

31:                                               ; preds = %29, %rbimpl_RB_TYPE_P_fastpath.exit.thread
  %.0 = phi i64 [ %30, %29 ], [ %28, %rbimpl_RB_TYPE_P_fastpath.exit.thread ]
  ret i64 %.0
}